(dp0
S'172.168.21.2'
p1
S'ri3'
p2
sS'172.168.21.1'
p3
S'ri2'
p4
sS'172.168.6.2'
p5
S'r1'
p6
sS'172.168.20.2'
p7
g4
sS'172.168.20.1'
p8
S'ri1'
p9
sS'172.168.6.1'
p10
S'r6'
p11
sS'172.168.23.1'
p12
S'ri4'
p13
sS'172.168.23.2'
p14
g9
sS'172.168.1.1'
p15
g6
sS'172.168.1.2'
p16
S'r2'
p17
sS'172.168.22.1'
p18
g2
sS'172.168.2.2'
p19
S'r3'
p20
sS'172.168.2.1'
p21
g17
sS'172.168.3.2'
p22
S'r4'
p23
sS'172.168.3.1'
p24
g20
sS'172.168.22.2'
p25
g13
sS'172.168.31.1'
p26
g20
sS'172.168.31.2'
p27
g4
sS'172.168.32.2'
p28
g2
sS'172.168.32.1'
p29
g20
sS'172.168.33.2'
p30
g13
sS'172.168.33.1'
p31
g23
sS'172.168.5.1'
p32
S'r5'
p33
sS'172.168.5.2'
p34
g11
sS'172.168.30.1'
p35
g6
sS'172.168.30.2'
p36
g4
sS'172.168.34.1'
p37
g11
sS'172.168.34.2'
p38
g13
sS'172.168.35.1'
p39
g11
sS'172.168.4.1'
p40
g23
sS'172.168.4.2'
p41
g33
sS'172.168.35.2'
p42
g9
s.