ccollections
defaultdict
p0
(c__builtin__
list
p1
tp2
Rp3
S'r4'
p4
(lp5
S'172.168.3.2'
p6
aS'172.168.4.1'
p7
aS'172.168.33.1'
p8
asS'r5'
p9
(lp10
S'172.168.4.2'
p11
aS'172.168.5.1'
p12
asS'r6'
p13
(lp14
S'172.168.5.2'
p15
aS'172.168.6.1'
p16
aS'172.168.34.1'
p17
aS'172.168.35.1'
p18
asS'r1'
p19
(lp20
S'172.168.1.1'
p21
aS'172.168.6.2'
p22
aS'172.168.30.1'
p23
asS'r2'
p24
(lp25
S'172.168.1.2'
p26
aS'172.168.2.1'
p27
asS'r3'
p28
(lp29
S'172.168.2.2'
p30
aS'172.168.3.1'
p31
aS'172.168.31.1'
p32
aS'172.168.32.1'
p33
asS'ri4'
p34
(lp35
S'172.168.22.2'
p36
aS'172.168.23.1'
p37
aS'172.168.33.2'
p38
aS'172.168.34.2'
p39
asS'ri2'
p40
(lp41
S'172.168.20.2'
p42
aS'172.168.21.1'
p43
aS'172.168.30.2'
p44
aS'172.168.31.2'
p45
asS'ri3'
p46
(lp47
S'172.168.21.2'
p48
aS'172.168.22.1'
p49
aS'172.168.32.2'
p50
asS'ri1'
p51
(lp52
S'172.168.20.1'
p53
aS'172.168.23.2'
p54
aS'172.168.35.2'
p55
as.